; Function Attrs: mustprogress uwtable
define void @_ZN3gmx28AnalysisDataBinAverageModuleC2ERKNS_25AnalysisHistogramSettingsE(ptr noundef nonnull align 8 dereferenceable(112) %0, ptr nocapture noundef nonnull readonly align 4 dereferenceable(21) %1) unnamed_addr #3 align 2 personality ptr @__gxx_personality_v0 {
  tail call void @_ZN3gmx25AbstractAnalysisArrayDataC2Ev(ptr noundef nonnull align 8 dereferenceable(94) %0)
  %3 = getelementptr inbounds i8, ptr %0, i64 96
  store ptr getelementptr inbounds inrange(-16, 88) ({ [13 x ptr], [12 x ptr] }, ptr @_ZTVN3gmx28AnalysisDataBinAverageModuleE, i64 0, i32 0, i64 2), ptr %0, align 8
  store ptr getelementptr inbounds inrange(-16, 80) ({ [13 x ptr], [12 x ptr] }, ptr @_ZTVN3gmx28AnalysisDataBinAverageModuleE, i64 0, i32 1, i64 2), ptr %3, align 8
  %4 = getelementptr inbounds i8, ptr %0, i64 104
  %5 = invoke noalias noundef nonnull dereferenceable(48) ptr @_Znwm(i64 noundef 48) #29
          to label %6 unwind label %19

6:                                                ; preds = %2
  tail call void @llvm.memcpy.p0.p0.i64(ptr noundef nonnull align 8 dereferenceable(24) %5, ptr noundef nonnull align 4 dereferenceable(24) %1, i64 24, i1 false)
  %7 = getelementptr inbounds i8, ptr %5, i64 24
  tail call void @llvm.memset.p0.i64(ptr noundef nonnull align 8 dereferenceable(24) %7, i8 0, i64 24, i1 false)
  store ptr %5, ptr %4, align 8
  %8 = getelementptr inbounds i8, ptr %1, i64 16
  %9 = load i32, ptr %8, align 4
  invoke void @_ZN3gmx25AbstractAnalysisArrayData11setRowCountEi(ptr noundef nonnull align 8 dereferenceable(94) %0, i32 noundef %9)
          to label %10 unwind label %21

10:                                               ; preds = %6
  %11 = load float, ptr %1, align 4
  %12 = fpext float %11 to double
  %13 = getelementptr inbounds i8, ptr %1, i64 8
  %14 = load float, ptr %13, align 4
  %15 = fpext float %14 to double
  %16 = tail call double @llvm.fmuladd.f64(double %15, double 5.000000e-01, double %12)
  %17 = fptrunc double %16 to float
  invoke void @_ZN3gmx25AbstractAnalysisArrayData8setXAxisEff(ptr noundef nonnull align 8 dereferenceable(94) %0, float noundef %17, float noundef %14)
          to label %18 unwind label %21

18:                                               ; preds = %10
  ret void

19:                                               ; preds = %2
  %20 = landingpad { ptr, i32 }
          cleanup
  br label %23

21:                                               ; preds = %10, %6
  %22 = landingpad { ptr, i32 }
          cleanup
  tail call void @_ZNSt10unique_ptrIN3gmx28AnalysisDataBinAverageModule4ImplESt14default_deleteIS2_EED2Ev(ptr noundef nonnull align 8 dereferenceable(8) %4) #26
  br label %23

23:                                               ; preds = %21, %19
  %.pn = phi { ptr, i32 } [ %22, %21 ], [ %20, %19 ]
  tail call void @_ZN3gmx25AbstractAnalysisArrayDataD2Ev(ptr noundef nonnull align 8 dereferenceable(94) %0) #26
  resume { ptr, i32 } %.pn
}